Certificate:
    Data:
        Version: 3 (0x2)
        Serial Number: 1 (0x1)
        Signature Algorithm: sha256WithRSAEncryption
        Issuer: C=CN, ST=GD, L=SZ, O=SW, OU=SW, CN=SW/emailAddress=SW
        Validity
            Not Before: Oct  8 07:37:07 2023 GMT
            Not After : Oct  7 07:37:07 2024 GMT
        Subject: C=CN, ST=GD, O=SW, OU=SW, CN=SW/emailAddress=SW
        Subject Public Key Info:
            Public Key Algorithm: rsaEncryption
                RSA Public-Key: (4096 bit)
                Modulus:
                    00:d8:87:da:39:b0:15:13:36:da:e6:b2:de:c4:bf:
                    39:f0:15:3e:d6:bb:de:ce:82:f9:6d:a9:3b:e7:8c:
                    75:95:f6:12:69:58:94:c3:ad:ab:f9:b5:34:14:48:
                    71:5b:69:d9:86:c8:33:43:8f:6a:c7:37:26:15:16:
                    e3:e9:c2:59:8f:09:98:bd:f2:7b:a7:1d:62:1c:9b:
                    e8:d4:87:8b:10:43:57:ff:27:64:ef:d8:99:a8:ca:
                    06:81:15:fe:fb:72:9d:32:c9:89:60:aa:80:92:ea:
                    33:c8:16:52:55:cc:0e:24:c1:cc:9d:e6:90:9f:d9:
                    07:00:86:71:17:34:4a:7d:ad:a1:2c:69:c8:b7:b9:
                    9d:84:39:b1:16:89:0f:77:9c:6f:63:e2:d0:61:c0:
                    2c:7f:81:b2:ad:70:23:9f:d5:bf:47:6c:98:02:b2:
                    7b:c9:9c:8a:da:80:71:c6:76:cd:e2:fc:a0:6d:7b:
                    7a:da:d3:61:11:d3:b4:5e:e7:be:d2:e5:be:93:56:
                    cd:b5:b8:a6:f2:a0:1d:cc:16:ba:ef:0f:ff:6d:96:
                    10:d5:c7:40:71:9f:88:bd:94:86:96:ae:fe:21:39:
                    b5:dc:2d:77:f9:aa:a9:0f:f5:95:44:c2:f6:1a:de:
                    74:79:18:08:03:dd:46:8a:18:a8:fd:a0:1a:70:e7:
                    25:67:2c:c6:86:a8:d7:a6:86:12:27:a0:2d:c2:b4:
                    68:bb:69:33:18:aa:08:b8:df:3e:69:01:c3:11:f7:
                    7a:04:a3:53:7f:23:a3:2b:17:13:ce:eb:97:b1:36:
                    d5:6a:b0:e3:4d:14:97:40:7d:e3:e0:a2:90:6a:dd:
                    7d:df:85:66:52:6b:a8:42:b1:3e:66:a9:fe:91:72:
                    59:ab:4f:20:c0:34:e7:75:f8:9e:bf:df:28:38:15:
                    97:a4:6f:9f:1d:7d:5d:ef:a3:0e:ac:60:24:3d:7f:
                    37:f6:80:96:ca:34:a7:3d:58:fd:c8:3b:d5:83:72:
                    ed:67:b2:5f:70:a4:39:09:45:4c:49:73:97:ef:d8:
                    e6:7a:9f:1a:d2:59:7b:b8:5f:f3:c4:54:aa:b4:81:
                    b0:bb:8f:ec:fd:ed:39:fe:29:68:1c:13:e1:e7:05:
                    4b:3e:0a:71:51:9a:c3:9d:e7:47:a5:e8:67:ed:15:
                    0c:7d:1f:4b:92:f3:0c:82:4a:9e:02:3b:c8:f0:49:
                    f8:00:99:b0:17:03:3d:2e:4c:d0:89:79:57:69:97:
                    13:6e:a5:3e:5b:37:80:8f:f8:7c:d7:dc:31:8d:7c:
                    5b:2b:1d:92:91:06:81:14:0c:e7:af:f3:ae:6c:5d:
                    59:45:ae:ee:7e:b7:f3:26:27:d0:9b:53:58:6a:8e:
                    d7:c7:a7
                Exponent: 65537 (0x10001)
        X509v3 extensions:
            X509v3 Basic Constraints: 
                CA:FALSE
            Netscape Comment: 
                OpenSSL Generated Certificate
            X509v3 Subject Key Identifier: 
                EC:EB:E2:17:11:31:79:F8:E0:17:59:F7:8A:B8:6D:57:06:10:2F:61
            X509v3 Authority Key Identifier: 
                keyid:C5:D9:0C:27:1D:9C:CE:F3:B1:EB:33:27:62:D8:1F:A2:F6:FA:CB:9B

    Signature Algorithm: sha256WithRSAEncryption
         82:21:de:85:f1:8a:32:99:48:42:b8:ad:f6:30:ee:29:19:29:
         f6:64:a5:1e:04:00:69:13:75:0b:c1:4e:ca:0d:06:f7:33:9c:
         8c:0a:c5:3f:9b:50:3d:e6:ae:aa:ea:8e:a8:28:ad:a5:d2:23:
         01:36:0e:d3:45:25:eb:1c:6a:e7:94:8d:61:e1:f2:07:ea:d9:
         69:89:93:cd:6e:38:05:5e:33:de:25:27:a9:a1:7b:8f:d6:18:
         ff:fa:81:b3:4a:69:e4:65:aa:19:34:fd:94:06:6d:6f:a0:8c:
         42:a5:3e:30:9f:6f:b2:4a:89:5f:0c:07:6d:1e:80:c5:81:8e:
         05:ac:5c:5a:fc:ed:df:69:a0:9e:ac:cc:26:3e:5e:3e:68:a0:
         5a:00:d5:a3:e0:15:e8:b6:9f:88:0d:a8:b1:fb:0c:50:61:d7:
         dc:1b:4e:48:27:07:c3:7d:84:0b:2c:b7:8a:fe:4b:c3:03:60:
         46:8c:49:ca:73:61:4e:e0:2f:31:11:29:e2:2d:1a:78:04:08:
         89:e1:4b:89:d3:5c:3e:be:65:78:26:b4:fe:36:84:9c:85:57:
         41:2d:6a:0e:83:4c:9b:8a:6a:c6:a3:30:e7:46:08:b2:85:22:
         d2:39:4f:26:33:67:fa:f0:3e:3c:39:d5:29:2d:90:2a:57:22:
         eb:88:48:08:68:6f:18:82:4d:b7:f5:a3:ff:17:c2:12:ab:36:
         c3:f8:ba:ad:0d:fb:60:a3:ef:ea:52:c6:a3:0c:1d:f4:33:ab:
         5d:e4:06:39:f1:0d:6e:60:3a:56:8e:3d:fc:a6:be:07:5c:98:
         a2:8f:09:6a:53:cd:14:98:69:f8:01:65:c6:68:e6:ed:0a:59:
         8f:b7:16:50:5e:e4:e4:45:98:4b:79:7c:d8:95:9d:25:98:f7:
         4e:bc:92:67:95:a5:54:31:88:50:eb:8d:c2:50:e8:72:06:59:
         6b:8d:e9:e9:37:0f:c2:9e:3f:f4:9c:1a:14:9d:2d:a6:c5:4a:
         9c:3f:53:1d:27:22:36:e5:f8:01:39:35:10:8f:97:c6:cf:70:
         58:b5:a7:cb:b7:0a:b9:33:51:36:1e:9a:ef:8f:c9:ef:8d:0e:
         b7:f2:92:82:d4:24:40:4e:ee:fa:79:61:55:6e:26:48:38:f1:
         40:8b:57:69:09:ab:3e:37:52:08:91:4b:52:70:3e:d5:07:db:
         50:b1:b1:0b:6c:18:c2:7c:37:32:47:92:52:d2:57:c6:5a:03:
         1d:17:2b:b2:75:67:75:81:43:98:96:97:d8:64:b4:58:98:c8:
         45:23:01:2a:18:8b:1e:b8:85:e7:2d:04:e0:9f:d6:d1:3e:60:
         f0:ec:06:50:7c:45:7b:e8
-----BEGIN CERTIFICATE-----
MIIFqzCCA5OgAwIBAgIBATANBgkqhkiG9w0BAQsFADBhMQswCQYDVQQGEwJDTjEL
MAkGA1UECAwCR0QxCzAJBgNVBAcMAlNaMQswCQYDVQQKDAJTVzELMAkGA1UECwwC
U1cxCzAJBgNVBAMMAlNXMREwDwYJKoZIhvcNAQkBFgJTVzAeFw0yMzEwMDgwNzM3
MDdaFw0yNDEwMDcwNzM3MDdaMFQxCzAJBgNVBAYTAkNOMQswCQYDVQQIDAJHRDEL
MAkGA1UECgwCU1cxCzAJBgNVBAsMAlNXMQswCQYDVQQDDAJTVzERMA8GCSqGSIb3
DQEJARYCU1cwggIiMA0GCSqGSIb3DQEBAQUAA4ICDwAwggIKAoICAQDYh9o5sBUT
Ntrmst7EvznwFT7Wu97OgvltqTvnjHWV9hJpWJTDrav5tTQUSHFbadmGyDNDj2rH
NyYVFuPpwlmPCZi98nunHWIcm+jUh4sQQ1f/J2Tv2JmoygaBFf77cp0yyYlgqoCS
6jPIFlJVzA4kwcyd5pCf2QcAhnEXNEp9raEsaci3uZ2EObEWiQ93nG9j4tBhwCx/
gbKtcCOf1b9HbJgCsnvJnIragHHGds3i/KBte3ra02ER07Re577S5b6TVs21uKby
oB3MFrrvD/9tlhDVx0Bxn4i9lIaWrv4hObXcLXf5qqkP9ZVEwvYa3nR5GAgD3UaK
GKj9oBpw5yVnLMaGqNemhhInoC3CtGi7aTMYqgi43z5pAcMR93oEo1N/I6MrFxPO
65exNtVqsONNFJdAfePgopBq3X3fhWZSa6hCsT5mqf6RclmrTyDANOd1+J6/3yg4
FZekb58dfV3vow6sYCQ9fzf2gJbKNKc9WP3IO9WDcu1nsl9wpDkJRUxJc5fv2OZ6
nxrSWXu4X/PEVKq0gbC7j+z97Tn+KWgcE+HnBUs+CnFRmsOd50el6GftFQx9H0uS
8wyCSp4CO8jwSfgAmbAXAz0uTNCJeVdplxNupT5bN4CP+HzX3DGNfFsrHZKRBoEU
DOev865sXVlFru5+t/MmJ9CbU1hqjtfHpwIDAQABo3sweTAJBgNVHRMEAjAAMCwG
CWCGSAGG+EIBDQQfFh1PcGVuU1NMIEdlbmVyYXRlZCBDZXJ0aWZpY2F0ZTAdBgNV
HQ4EFgQU7OviFxExefjgF1n3irhtVwYQL2EwHwYDVR0jBBgwFoAUxdkMJx2czvOx
6zMnYtgfovb6y5swDQYJKoZIhvcNAQELBQADggIBAIIh3oXxijKZSEK4rfYw7ikZ
KfZkpR4EAGkTdQvBTsoNBvcznIwKxT+bUD3mrqrqjqgoraXSIwE2DtNFJescaueU
jWHh8gfq2WmJk81uOAVeM94lJ6mhe4/WGP/6gbNKaeRlqhk0/ZQGbW+gjEKlPjCf
b7JKiV8MB20egMWBjgWsXFr87d9poJ6szCY+Xj5ooFoA1aPgFei2n4gNqLH7DFBh
19wbTkgnB8N9hAsst4r+S8MDYEaMScpzYU7gLzERKeItGngECInhS4nTXD6+ZXgm
tP42hJyFV0Etag6DTJuKasajMOdGCLKFItI5TyYzZ/rwPjw51SktkCpXIuuISAho
bxiCTbf1o/8XwhKrNsP4uq0N+2Cj7+pSxqMMHfQzq13kBjnxDW5gOlaOPfymvgdc
mKKPCWpTzRSYafgBZcZo5u0KWY+3FlBe5ORFmEt5fNiVnSWY9068kmeVpVQxiFDr
jcJQ6HIGWWuN6ek3D8KeP/ScGhSdLabFSpw/Ux0nIjbl+AE5NRCPl8bPcFi1p8u3
CrkzUTYemu+Pye+NDrfykoLUJEBO7vp5YVVuJkg48UCLV2kJqz43UgiRS1JwPtUH
21CxsQtsGMJ8NzJHklLSV8ZaAx0XK7J1Z3WBQ5iWl9hktFiYyEUjASoYix64hect
BOCf1tE+YPDsBlB8RXvo
-----END CERTIFICATE-----
